target datalayout = "e-m:e-p270:32:32-p271:32:32-p272:64:64-i64:64-i128:128-f80:128-n8:16:32:64-S128"
target triple = "x86_64-unknown-linux-gnu"

; Function Attrs: mustprogress uwtable
define hidden noundef ptr @_ZNK7datalog23finite_product_relation10complementEP9func_decl(ptr noundef nonnull align 8 dereferenceable(160) %this, ptr noundef %p) unnamed_addr #4 align 2 {
entry:
  %this.addr = alloca ptr, align 8
  %p.addr = alloca ptr, align 8
  %res = alloca ptr, align 8
  store ptr %this, ptr %this.addr, align 8
  store ptr %p, ptr %p.addr, align 8
  %this1 = load ptr, ptr %this.addr, align 8
  %vtable = load ptr, ptr %this1, align 8
  %vfn = getelementptr inbounds ptr, ptr %vtable, i64 9
  %0 = load ptr, ptr %vfn, align 8
  %call = call noundef ptr %0(ptr noundef nonnull align 8 dereferenceable(160) %this1)
  store ptr %call, ptr %res, align 8
  %1 = load ptr, ptr %res, align 8
  %2 = load ptr, ptr %p.addr, align 8
  call void @_ZN7datalog23finite_product_relation15complement_selfEP9func_decl(ptr noundef nonnull align 8 dereferenceable(160) %1, ptr noundef %2)
  %3 = load ptr, ptr %res, align 8
  ret ptr %3
}