; Function Attrs: mustprogress uwtable
define hidden noundef ptr @_ZNK7datalog23finite_product_relation10complementEP9func_decl(ptr noundef nonnull align 8 dereferenceable(160) %this, ptr noundef %p) unnamed_addr #3 align 2 {
entry:
  %vtable = load ptr, ptr %this, align 8
  %vfn = getelementptr inbounds i8, ptr %vtable, i64 72
  %0 = load ptr, ptr %vfn, align 8
  %call = tail call noundef ptr %0(ptr noundef nonnull align 8 dereferenceable(160) %this)
  tail call void @_ZN7datalog23finite_product_relation15complement_selfEP9func_decl(ptr noundef nonnull align 8 dereferenceable(160) %call, ptr noundef %p)
  ret ptr %call
}